target datalayout = "e-m:e-p270:32:32-p271:32:32-p272:64:64-i64:64-i128:128-f80:128-n8:16:32:64-S128"
target triple = "x86_64-pc-linux-gnu"

%struct.ossl_passphrase_data_st = type { i32, %union.anon, i8, ptr, i64 }
%union.anon = type { %struct.anon }
%struct.anon = type { ptr, i64 }
%struct.ossl_store_ctx_st = type { ptr, ptr, ptr, ptr, ptr, i32, ptr, i32, i32, ptr, %struct.ossl_passphrase_data_st }
%struct.ossl_store_loader_st = type { ptr, ptr, ptr, ptr, ptr, ptr, ptr, ptr, ptr, ptr, ptr, ptr, ptr, i32, ptr, ptr, %struct.CRYPTO_REF_COUNT, ptr, ptr, ptr, ptr, ptr, ptr, ptr, ptr, ptr, ptr }
%struct.CRYPTO_REF_COUNT = type { i32 }
%struct.ossl_param_st = type { ptr, i32, ptr, i64, i64 }

@.str.2 = private unnamed_addr constant [36 x i8] c"../openssl/crypto/store/store_lib.c\00", align 1
@__func__.OSSL_STORE_expect = private unnamed_addr constant [18 x i8] c"OSSL_STORE_expect\00", align 1
@.str.4 = private unnamed_addr constant [7 x i8] c"expect\00", align 1

; Function Attrs: nounwind uwtable
define i32 @OSSL_STORE_expect(ptr noundef %0, i32 noundef %1) #0 {
  %3 = alloca i32, align 4
  %4 = alloca ptr, align 8
  %5 = alloca i32, align 4
  %6 = alloca i32, align 4
  %7 = alloca i32, align 4
  %8 = alloca [2 x %struct.ossl_param_st], align 16
  %9 = alloca %struct.ossl_param_st, align 8
  store ptr %0, ptr %4, align 8, !tbaa !19
  store i32 %1, ptr %5, align 4, !tbaa !21
  call void @llvm.lifetime.start.p0(i64 4, ptr %6) #8
  store i32 1, ptr %6, align 4, !tbaa !21
  %10 = load ptr, ptr %4, align 8, !tbaa !19
  %11 = icmp eq ptr %10, null
  br i1 %11, label %18, label %12

12:                                               ; preds = %2
  %13 = load i32, ptr %5, align 4, !tbaa !21
  %14 = icmp slt i32 %13, 0
  br i1 %14, label %18, label %15

15:                                               ; preds = %12
  %16 = load i32, ptr %5, align 4, !tbaa !21
  %17 = icmp sgt i32 %16, 6
  br i1 %17, label %18, label %19

18:                                               ; preds = %15, %12, %2
  call void @ERR_new()
  call void @ERR_set_debug(ptr noundef @.str.2, i32 noundef 299, ptr noundef @__func__.OSSL_STORE_expect)
  call void (i32, i32, ptr, ...) @ERR_set_error(i32 noundef 44, i32 noundef 524550, ptr noundef null)
  store i32 0, ptr %3, align 4
  store i32 1, ptr %7, align 4
  br label %77

19:                                               ; preds = %15
  %20 = load ptr, ptr %4, align 8, !tbaa !19
  %21 = getelementptr inbounds nuw %struct.ossl_store_ctx_st, ptr %20, i32 0, i32 7
  %22 = load i32, ptr %21, align 8, !tbaa !57
  %23 = icmp ne i32 %22, 0
  br i1 %23, label %24, label %25

24:                                               ; preds = %19
  call void @ERR_new()
  call void @ERR_set_debug(ptr noundef @.str.2, i32 noundef 303, ptr noundef @__func__.OSSL_STORE_expect)
  call void (i32, i32, ptr, ...) @ERR_set_error(i32 noundef 44, i32 noundef 117, ptr noundef null)
  store i32 0, ptr %3, align 4
  store i32 1, ptr %7, align 4
  br label %77

25:                                               ; preds = %19
  %26 = load i32, ptr %5, align 4, !tbaa !21
  %27 = load ptr, ptr %4, align 8, !tbaa !19
  %28 = getelementptr inbounds nuw %struct.ossl_store_ctx_st, ptr %27, i32 0, i32 5
  store i32 %26, ptr %28, align 8, !tbaa !58
  %29 = load ptr, ptr %4, align 8, !tbaa !19
  %30 = getelementptr inbounds nuw %struct.ossl_store_ctx_st, ptr %29, i32 0, i32 1
  %31 = load ptr, ptr %30, align 8, !tbaa !42
  %32 = icmp ne ptr %31, null
  br i1 %32, label %33, label %52

33:                                               ; preds = %25
  %34 = load ptr, ptr %4, align 8, !tbaa !19
  %35 = getelementptr inbounds nuw %struct.ossl_store_ctx_st, ptr %34, i32 0, i32 1
  %36 = load ptr, ptr %35, align 8, !tbaa !42
  %37 = getelementptr inbounds nuw %struct.ossl_store_loader_st, ptr %36, i32 0, i32 20
  %38 = load ptr, ptr %37, align 8, !tbaa !48
  %39 = icmp ne ptr %38, null
  br i1 %39, label %40, label %52

40:                                               ; preds = %33
  call void @llvm.lifetime.start.p0(i64 80, ptr %8) #8
  call void @llvm.memset.p0.i64(ptr align 16 %8, i8 0, i64 80, i1 false)
  %41 = getelementptr inbounds [2 x %struct.ossl_param_st], ptr %8, i64 0, i64 0
  call void @llvm.lifetime.start.p0(i64 40, ptr %9) #8
  call void @OSSL_PARAM_construct_int(ptr dead_on_unwind writable sret(%struct.ossl_param_st) align 8 %9, ptr noundef @.str.4, ptr noundef %5)
  call void @llvm.memcpy.p0.p0.i64(ptr align 16 %41, ptr align 8 %9, i64 40, i1 false), !tbaa.struct !49
  call void @llvm.lifetime.end.p0(i64 40, ptr %9) #8
  %42 = load ptr, ptr %4, align 8, !tbaa !19
  %43 = getelementptr inbounds nuw %struct.ossl_store_ctx_st, ptr %42, i32 0, i32 1
  %44 = load ptr, ptr %43, align 8, !tbaa !42
  %45 = getelementptr inbounds nuw %struct.ossl_store_loader_st, ptr %44, i32 0, i32 20
  %46 = load ptr, ptr %45, align 8, !tbaa !48
  %47 = load ptr, ptr %4, align 8, !tbaa !19
  %48 = getelementptr inbounds nuw %struct.ossl_store_ctx_st, ptr %47, i32 0, i32 2
  %49 = load ptr, ptr %48, align 8, !tbaa !44
  %50 = getelementptr inbounds [2 x %struct.ossl_param_st], ptr %8, i64 0, i64 0
  %51 = call i32 %46(ptr noundef %49, ptr noundef %50)
  store i32 %51, ptr %6, align 4, !tbaa !21
  call void @llvm.lifetime.end.p0(i64 80, ptr %8) #8
  br label %52

52:                                               ; preds = %40, %33, %25
  %53 = load ptr, ptr %4, align 8, !tbaa !19
  %54 = getelementptr inbounds nuw %struct.ossl_store_ctx_st, ptr %53, i32 0, i32 1
  %55 = load ptr, ptr %54, align 8, !tbaa !42
  %56 = icmp eq ptr %55, null
  br i1 %56, label %57, label %75

57:                                               ; preds = %52
  %58 = load ptr, ptr %4, align 8, !tbaa !19
  %59 = getelementptr inbounds nuw %struct.ossl_store_ctx_st, ptr %58, i32 0, i32 0
  %60 = load ptr, ptr %59, align 8, !tbaa !43
  %61 = getelementptr inbounds nuw %struct.ossl_store_loader_st, ptr %60, i32 0, i32 5
  %62 = load ptr, ptr %61, align 8, !tbaa !59
  %63 = icmp ne ptr %62, null
  br i1 %63, label %64, label %75

64:                                               ; preds = %57
  %65 = load ptr, ptr %4, align 8, !tbaa !19
  %66 = getelementptr inbounds nuw %struct.ossl_store_ctx_st, ptr %65, i32 0, i32 0
  %67 = load ptr, ptr %66, align 8, !tbaa !43
  %68 = getelementptr inbounds nuw %struct.ossl_store_loader_st, ptr %67, i32 0, i32 5
  %69 = load ptr, ptr %68, align 8, !tbaa !59
  %70 = load ptr, ptr %4, align 8, !tbaa !19
  %71 = getelementptr inbounds nuw %struct.ossl_store_ctx_st, ptr %70, i32 0, i32 2
  %72 = load ptr, ptr %71, align 8, !tbaa !44
  %73 = load i32, ptr %5, align 4, !tbaa !21
  %74 = call i32 %69(ptr noundef %72, i32 noundef %73)
  store i32 %74, ptr %6, align 4, !tbaa !21
  br label %75

75:                                               ; preds = %64, %57, %52
  %76 = load i32, ptr %6, align 4, !tbaa !21
  store i32 %76, ptr %3, align 4
  store i32 1, ptr %7, align 4
  br label %77

77:                                               ; preds = %75, %24, %18
  call void @llvm.lifetime.end.p0(i64 4, ptr %6) #8
  %78 = load i32, ptr %3, align 4
  ret i32 %78
}