; Function Attrs: nounwind uwtable
define i32 @OSSL_STORE_expect(ptr noundef captures(address_is_null) %0, i32 noundef %1) local_unnamed_addr #0 {
  %3 = alloca i32, align 4
  %4 = alloca [2 x %struct.ossl_param_st], align 16
  store i32 %1, ptr %3, align 4, !tbaa !20
  %5 = icmp eq ptr %0, null
  %6 = icmp ugt i32 %1, 6
  %or.cond3 = or i1 %5, %6
  br i1 %or.cond3, label %7, label %8

7:                                                ; preds = %2
  tail call void @ERR_new() #9
  tail call void @ERR_set_debug(ptr noundef nonnull @.str.2, i32 noundef 299, ptr noundef nonnull @__func__.OSSL_STORE_expect) #9
  tail call void (i32, i32, ptr, ...) @ERR_set_error(i32 noundef 44, i32 noundef 524550, ptr noundef null) #9
  br label %.thread26

8:                                                ; preds = %2
  %9 = getelementptr inbounds nuw i8, ptr %0, i64 56
  %10 = load i32, ptr %9, align 8, !tbaa !44
  %.not = icmp eq i32 %10, 0
  br i1 %.not, label %12, label %11

11:                                               ; preds = %8
  tail call void @ERR_new() #9
  tail call void @ERR_set_debug(ptr noundef nonnull @.str.2, i32 noundef 303, ptr noundef nonnull @__func__.OSSL_STORE_expect) #9
  tail call void (i32, i32, ptr, ...) @ERR_set_error(i32 noundef 44, i32 noundef 117, ptr noundef null) #9
  br label %.thread26

12:                                               ; preds = %8
  %13 = getelementptr inbounds nuw i8, ptr %0, i64 40
  store i32 %1, ptr %13, align 8, !tbaa !45
  %14 = getelementptr inbounds nuw i8, ptr %0, i64 8
  %15 = load ptr, ptr %14, align 8, !tbaa !33
  %.not20 = icmp eq ptr %15, null
  br i1 %.not20, label %.thread, label %16

16:                                               ; preds = %12
  %17 = getelementptr inbounds nuw i8, ptr %15, i64 160
  %18 = load ptr, ptr %17, align 8, !tbaa !18
  %.not21 = icmp eq ptr %18, null
  br i1 %.not21, label %.thread26, label %19

19:                                               ; preds = %16
  call void @llvm.lifetime.start.p0(i64 80, ptr nonnull %4) #9
  call void @OSSL_PARAM_construct_int(ptr dead_on_unwind nonnull writable sret(%struct.ossl_param_st) align 8 %4, ptr noundef nonnull @.str.4, ptr noundef nonnull %3) #9
  %20 = getelementptr inbounds nuw i8, ptr %4, i64 40
  call void @llvm.memset.p0.i64(ptr noundef nonnull align 8 dereferenceable(40) %20, i8 0, i64 40, i1 false)
  %21 = load ptr, ptr %14, align 8, !tbaa !33
  %22 = getelementptr inbounds nuw i8, ptr %21, i64 160
  %23 = load ptr, ptr %22, align 8, !tbaa !18
  %24 = getelementptr inbounds nuw i8, ptr %0, i64 16
  %25 = load ptr, ptr %24, align 8, !tbaa !35
  %26 = call i32 %23(ptr noundef %25, ptr noundef nonnull %4) #9
  call void @llvm.lifetime.end.p0(i64 80, ptr nonnull %4) #9
  %.pr.pre = load ptr, ptr %14, align 8, !tbaa !33
  %27 = icmp eq ptr %.pr.pre, null
  br i1 %27, label %.thread, label %.thread26

.thread:                                          ; preds = %12, %19
  %.024 = phi i32 [ %26, %19 ], [ 1, %12 ]
  %28 = load ptr, ptr %0, align 8, !tbaa !34
  %29 = getelementptr inbounds nuw i8, ptr %28, i64 40
  %30 = load ptr, ptr %29, align 8, !tbaa !46
  %.not22 = icmp eq ptr %30, null
  br i1 %.not22, label %.thread26, label %31

31:                                               ; preds = %.thread
  %32 = getelementptr inbounds nuw i8, ptr %0, i64 16
  %33 = load ptr, ptr %32, align 8, !tbaa !35
  %34 = load i32, ptr %3, align 4, !tbaa !20
  %35 = call i32 %30(ptr noundef %33, i32 noundef %34) #9
  br label %.thread26

.thread26:                                        ; preds = %16, %19, %.thread, %31, %11, %7
  %.015 = phi i32 [ 0, %7 ], [ 0, %11 ], [ %35, %31 ], [ %.024, %.thread ], [ %26, %19 ], [ 1, %16 ]
  ret i32 %.015
}